target datalayout = "e-m:e-p270:32:32-p271:32:32-p272:64:64-i64:64-i128:128-f80:128-n8:16:32:64-S128"
target triple = "x86_64-pc-linux-gnu"

%"class.smt2::scanner" = type { ptr, i8, i32, i8, i8, i32, i32, %class.symbol, %class.rational, i32, [256 x i8], [1024 x i8], i32, i32, %class.svector, ptr, i8, %class.svector, %class.svector }
%class.symbol = type { ptr }
%class.rational = type { %class.mpq }
%class.mpq = type { %class.mpz, %class.mpz }
%class.mpz = type { i32, i8, ptr }
%class.svector = type { %class.vector }
%class.vector = type { ptr }

; Function Attrs: mustprogress nounwind uwtable
define linkonce_odr hidden void @_ZN3mpzC2Ei(ptr noundef nonnull align 8 dereferenceable(16) %0, i32 noundef %1) unnamed_addr #5 comdat align 2 {
  %3 = alloca ptr, align 8
  %4 = alloca i32, align 4
  store ptr %0, ptr %3, align 8, !tbaa !119
  store i32 %1, ptr %4, align 4, !tbaa !38
  %5 = load ptr, ptr %3, align 8
  %6 = getelementptr inbounds nuw %class.mpz, ptr %5, i32 0, i32 0
  %7 = load i32, ptr %4, align 4, !tbaa !38
  store i32 %7, ptr %6, align 8, !tbaa !121
  %8 = getelementptr inbounds nuw %class.mpz, ptr %5, i32 0, i32 1
  %9 = load i8, ptr %8, align 4
  %10 = and i8 %9, -2
  %11 = or i8 %10, 0
  store i8 %11, ptr %8, align 4
  %12 = getelementptr inbounds nuw %class.mpz, ptr %5, i32 0, i32 1
  %13 = load i8, ptr %12, align 4
  %14 = and i8 %13, -3
  %15 = or i8 %14, 0
  store i8 %15, ptr %12, align 4
  %16 = getelementptr inbounds nuw %class.mpz, ptr %5, i32 0, i32 2
  store ptr null, ptr %16, align 8, !tbaa !122
  ret void
}

; Function Attrs: mustprogress nounwind uwtable
define linkonce_odr hidden void @_ZN3mpzC2Ev(ptr noundef nonnull align 8 dereferenceable(16) %0) unnamed_addr #5 comdat align 2 {
  %2 = alloca ptr, align 8
  store ptr %0, ptr %2, align 8, !tbaa !119
  %3 = load ptr, ptr %2, align 8
  %4 = getelementptr inbounds nuw %class.mpz, ptr %3, i32 0, i32 0
  store i32 0, ptr %4, align 8, !tbaa !121
  %5 = getelementptr inbounds nuw %class.mpz, ptr %3, i32 0, i32 1
  %6 = load i8, ptr %5, align 4
  %7 = and i8 %6, -2
  %8 = or i8 %7, 0
  store i8 %8, ptr %5, align 4
  %9 = getelementptr inbounds nuw %class.mpz, ptr %3, i32 0, i32 1
  %10 = load i8, ptr %9, align 4
  %11 = and i8 %10, -3
  %12 = or i8 %11, 0
  store i8 %12, ptr %9, align 4
  %13 = getelementptr inbounds nuw %class.mpz, ptr %3, i32 0, i32 2
  store ptr null, ptr %13, align 8, !tbaa !122
  ret void
}

; Function Attrs: mustprogress nounwind uwtable
define linkonce_odr hidden void @_ZN6vectorIcLb0EjEC2Ev(ptr noundef nonnull align 8 dereferenceable(8) %0) unnamed_addr #5 comdat align 2 {
  %2 = alloca ptr, align 8
  store ptr %0, ptr %2, align 8, !tbaa !34
  %3 = load ptr, ptr %2, align 8
  %4 = getelementptr inbounds nuw %class.vector, ptr %3, i32 0, i32 0
  store ptr null, ptr %4, align 8, !tbaa !37
  ret void
}

; Function Attrs: mustprogress uwtable
define linkonce_odr hidden void @_ZN3mpqC2Ev(ptr noundef nonnull align 8 dereferenceable(32) %0) unnamed_addr #4 comdat align 2 {
  %2 = alloca ptr, align 8
  store ptr %0, ptr %2, align 8, !tbaa !117
  %3 = load ptr, ptr %2, align 8
  %4 = getelementptr inbounds nuw %class.mpq, ptr %3, i32 0, i32 0
  call void @_ZN3mpzC2Ev(ptr noundef nonnull align 8 dereferenceable(16) %4)
  %5 = getelementptr inbounds nuw %class.mpq, ptr %3, i32 0, i32 1
  call void @_ZN3mpzC2Ei(ptr noundef nonnull align 8 dereferenceable(16) %5, i32 noundef 1)
  ret void
}

; Function Attrs: mustprogress nounwind uwtable
define linkonce_odr hidden void @_ZN7svectorIcjEC2Ev(ptr noundef nonnull align 8 dereferenceable(8) %0) unnamed_addr #5 comdat align 2 {
  %2 = alloca ptr, align 8
  store ptr %0, ptr %2, align 8, !tbaa !86
  %3 = load ptr, ptr %2, align 8
  call void @_ZN6vectorIcLb0EjEC2Ev(ptr noundef nonnull align 8 dereferenceable(8) %3) #3
  ret void
}

; Function Attrs: mustprogress uwtable
define linkonce_odr hidden void @_ZN8rationalC2Ev(ptr noundef nonnull align 8 dereferenceable(32) %0) unnamed_addr #4 comdat align 2 {
  %2 = alloca ptr, align 8
  store ptr %0, ptr %2, align 8, !tbaa !67
  %3 = load ptr, ptr %2, align 8
  %4 = getelementptr inbounds nuw %class.rational, ptr %3, i32 0, i32 0
  call void @_ZN3mpqC2Ev(ptr noundef nonnull align 8 dereferenceable(32) %4)
  ret void
}

; Function Attrs: mustprogress nounwind uwtable
define linkonce_odr hidden void @_ZN6symbolC2Ev(ptr noundef nonnull align 8 dereferenceable(8) %0) unnamed_addr #5 comdat align 2 {
  %2 = alloca ptr, align 8
  store ptr %0, ptr %2, align 8, !tbaa !83
  %3 = load ptr, ptr %2, align 8
  %4 = getelementptr inbounds nuw %class.symbol, ptr %3, i32 0, i32 0
  store ptr null, ptr %4, align 8, !tbaa !85
  ret void
}

; Function Attrs: mustprogress uwtable
define hidden void @_ZN4smt27scannerC2ER11cmd_contextRSib(ptr noundef nonnull align 8 dereferenceable(1408) %0, ptr noundef nonnull align 8 dereferenceable(896) %1, ptr noundef nonnull align 8 dereferenceable(16) %2, i1 noundef zeroext %3) unnamed_addr #4 align 2 personality ptr @__gxx_personality_v0 {
  %5 = alloca ptr, align 8
  %6 = alloca ptr, align 8
  %7 = alloca ptr, align 8
  %8 = alloca i8, align 1
  %9 = alloca i32, align 4
  %10 = alloca i8, align 1
  %11 = alloca i8, align 1
  %12 = alloca i8, align 1
  %13 = alloca ptr, align 8
  %14 = alloca i32, align 4
  store ptr %0, ptr %5, align 8, !tbaa !3
  store ptr %1, ptr %6, align 8, !tbaa !77
  store ptr %2, ptr %7, align 8, !tbaa !52
  %15 = zext i1 %3 to i8
  store i8 %15, ptr %8, align 1, !tbaa !59
  %16 = load ptr, ptr %5, align 8
  %17 = getelementptr inbounds nuw %"class.smt2::scanner", ptr %16, i32 0, i32 0
  %18 = load ptr, ptr %6, align 8, !tbaa !77
  store ptr %18, ptr %17, align 8, !tbaa !77
  %19 = getelementptr inbounds nuw %"class.smt2::scanner", ptr %16, i32 0, i32 1
  %20 = load i8, ptr %8, align 1, !tbaa !59, !range !22, !noundef !23
  %21 = trunc i8 %20 to i1
  %22 = zext i1 %21 to i8
  store i8 %22, ptr %19, align 8, !tbaa !25
  %23 = getelementptr inbounds nuw %"class.smt2::scanner", ptr %16, i32 0, i32 2
  store i32 0, ptr %23, align 4, !tbaa !33
  %24 = getelementptr inbounds nuw %"class.smt2::scanner", ptr %16, i32 0, i32 3
  store i8 0, ptr %24, align 8, !tbaa !27
  %25 = getelementptr inbounds nuw %"class.smt2::scanner", ptr %16, i32 0, i32 4
  store i8 0, ptr %25, align 1, !tbaa !24
  %26 = getelementptr inbounds nuw %"class.smt2::scanner", ptr %16, i32 0, i32 5
  store i32 1, ptr %26, align 4, !tbaa !57
  %27 = getelementptr inbounds nuw %"class.smt2::scanner", ptr %16, i32 0, i32 6
  store i32 0, ptr %27, align 8, !tbaa !78
  %28 = getelementptr inbounds nuw %"class.smt2::scanner", ptr %16, i32 0, i32 7
  call void @_ZN6symbolC2Ev(ptr noundef nonnull align 8 dereferenceable(8) %28) #3
  %29 = getelementptr inbounds nuw %"class.smt2::scanner", ptr %16, i32 0, i32 8
  call void @_ZN8rationalC2Ev(ptr noundef nonnull align 8 dereferenceable(32) %29)
  %30 = getelementptr inbounds nuw %"class.smt2::scanner", ptr %16, i32 0, i32 9
  store i32 -1, ptr %30, align 8, !tbaa !74
  %31 = getelementptr inbounds nuw %"class.smt2::scanner", ptr %16, i32 0, i32 12
  store i32 0, ptr %31, align 4, !tbaa !30
  %32 = getelementptr inbounds nuw %"class.smt2::scanner", ptr %16, i32 0, i32 13
  store i32 0, ptr %32, align 8, !tbaa !31
  %33 = getelementptr inbounds nuw %"class.smt2::scanner", ptr %16, i32 0, i32 14
  call void @_ZN7svectorIcjEC2Ev(ptr noundef nonnull align 8 dereferenceable(8) %33) #3
  %34 = getelementptr inbounds nuw %"class.smt2::scanner", ptr %16, i32 0, i32 15
  %35 = load ptr, ptr %7, align 8, !tbaa !52
  store ptr %35, ptr %34, align 8, !tbaa !26
  %36 = getelementptr inbounds nuw %"class.smt2::scanner", ptr %16, i32 0, i32 16
  store i8 0, ptr %36, align 8, !tbaa !8
  %37 = getelementptr inbounds nuw %"class.smt2::scanner", ptr %16, i32 0, i32 17
  call void @_ZN7svectorIcjEC2Ev(ptr noundef nonnull align 8 dereferenceable(8) %37) #3
  %38 = getelementptr inbounds nuw %"class.smt2::scanner", ptr %16, i32 0, i32 18
  call void @_ZN7svectorIcjEC2Ev(ptr noundef nonnull align 8 dereferenceable(8) %38) #3
  call void @llvm.lifetime.start.p0(i64 4, ptr %9) #3
  store i32 0, ptr %9, align 4, !tbaa !38
  br label %39

39:                                               ; preds = %50, %4
  %40 = load i32, ptr %9, align 4, !tbaa !38
  %41 = icmp slt i32 %40, 256
  br i1 %41, label %43, label %42

42:                                               ; preds = %39
  call void @llvm.lifetime.end.p0(i64 4, ptr %9) #3
  br label %53

43:                                               ; preds = %39
  %44 = load i32, ptr %9, align 4, !tbaa !38
  %45 = trunc i32 %44 to i8
  %46 = getelementptr inbounds nuw %"class.smt2::scanner", ptr %16, i32 0, i32 10
  %47 = load i32, ptr %9, align 4, !tbaa !38
  %48 = sext i32 %47 to i64
  %49 = getelementptr inbounds [256 x i8], ptr %46, i64 0, i64 %48
  store i8 %45, ptr %49, align 1, !tbaa !32
  br label %50

50:                                               ; preds = %43
  %51 = load i32, ptr %9, align 4, !tbaa !38
  %52 = add nsw i32 %51, 1
  store i32 %52, ptr %9, align 4, !tbaa !38
  br label %39, !llvm.loop !79

53:                                               ; preds = %42
  %54 = getelementptr inbounds nuw %"class.smt2::scanner", ptr %16, i32 0, i32 10
  %55 = getelementptr inbounds [256 x i8], ptr %54, i64 0, i64 9
  store i8 32, ptr %55, align 1, !tbaa !32
  %56 = getelementptr inbounds nuw %"class.smt2::scanner", ptr %16, i32 0, i32 10
  %57 = getelementptr inbounds [256 x i8], ptr %56, i64 0, i64 13
  store i8 32, ptr %57, align 1, !tbaa !32
  call void @llvm.lifetime.start.p0(i64 1, ptr %10) #3
  store i8 98, ptr %10, align 1, !tbaa !32
  br label %58

58:                                               ; preds = %69, %53
  %59 = load i8, ptr %10, align 1, !tbaa !32
  %60 = sext i8 %59 to i32
  %61 = icmp sle i32 %60, 122
  br i1 %61, label %63, label %62

62:                                               ; preds = %58
  call void @llvm.lifetime.end.p0(i64 1, ptr %10) #3
  br label %72

63:                                               ; preds = %58
  %64 = getelementptr inbounds nuw %"class.smt2::scanner", ptr %16, i32 0, i32 10
  %65 = load i8, ptr %10, align 1, !tbaa !32
  %66 = sext i8 %65 to i32
  %67 = sext i32 %66 to i64
  %68 = getelementptr inbounds [256 x i8], ptr %64, i64 0, i64 %67
  store i8 97, ptr %68, align 1, !tbaa !32
  br label %69

69:                                               ; preds = %63
  %70 = load i8, ptr %10, align 1, !tbaa !32
  %71 = add i8 %70, 1
  store i8 %71, ptr %10, align 1, !tbaa !32
  br label %58, !llvm.loop !80

72:                                               ; preds = %62
  call void @llvm.lifetime.start.p0(i64 1, ptr %11) #3
  store i8 65, ptr %11, align 1, !tbaa !32
  br label %73

73:                                               ; preds = %84, %72
  %74 = load i8, ptr %11, align 1, !tbaa !32
  %75 = sext i8 %74 to i32
  %76 = icmp sle i32 %75, 90
  br i1 %76, label %78, label %77

77:                                               ; preds = %73
  call void @llvm.lifetime.end.p0(i64 1, ptr %11) #3
  br label %87

78:                                               ; preds = %73
  %79 = getelementptr inbounds nuw %"class.smt2::scanner", ptr %16, i32 0, i32 10
  %80 = load i8, ptr %11, align 1, !tbaa !32
  %81 = sext i8 %80 to i32
  %82 = sext i32 %81 to i64
  %83 = getelementptr inbounds [256 x i8], ptr %79, i64 0, i64 %82
  store i8 97, ptr %83, align 1, !tbaa !32
  br label %84

84:                                               ; preds = %78
  %85 = load i8, ptr %11, align 1, !tbaa !32
  %86 = add i8 %85, 1
  store i8 %86, ptr %11, align 1, !tbaa !32
  br label %73, !llvm.loop !81

87:                                               ; preds = %77
  call void @llvm.lifetime.start.p0(i64 1, ptr %12) #3
  store i8 49, ptr %12, align 1, !tbaa !32
  br label %88

88:                                               ; preds = %99, %87
  %89 = load i8, ptr %12, align 1, !tbaa !32
  %90 = sext i8 %89 to i32
  %91 = icmp sle i32 %90, 57
  br i1 %91, label %93, label %92

92:                                               ; preds = %88
  call void @llvm.lifetime.end.p0(i64 1, ptr %12) #3
  br label %102

93:                                               ; preds = %88
  %94 = getelementptr inbounds nuw %"class.smt2::scanner", ptr %16, i32 0, i32 10
  %95 = load i8, ptr %12, align 1, !tbaa !32
  %96 = sext i8 %95 to i32
  %97 = sext i32 %96 to i64
  %98 = getelementptr inbounds [256 x i8], ptr %94, i64 0, i64 %97
  store i8 48, ptr %98, align 1, !tbaa !32
  br label %99

99:                                               ; preds = %93
  %100 = load i8, ptr %12, align 1, !tbaa !32
  %101 = add i8 %100, 1
  store i8 %101, ptr %12, align 1, !tbaa !32
  br label %88, !llvm.loop !82

102:                                              ; preds = %92
  %103 = getelementptr inbounds nuw %"class.smt2::scanner", ptr %16, i32 0, i32 10
  %104 = getelementptr inbounds [256 x i8], ptr %103, i64 0, i64 126
  store i8 97, ptr %104, align 2, !tbaa !32
  %105 = getelementptr inbounds nuw %"class.smt2::scanner", ptr %16, i32 0, i32 10
  %106 = getelementptr inbounds [256 x i8], ptr %105, i64 0, i64 33
  store i8 97, ptr %106, align 1, !tbaa !32
  %107 = getelementptr inbounds nuw %"class.smt2::scanner", ptr %16, i32 0, i32 10
  %108 = getelementptr inbounds [256 x i8], ptr %107, i64 0, i64 64
  store i8 97, ptr %108, align 4, !tbaa !32
  %109 = getelementptr inbounds nuw %"class.smt2::scanner", ptr %16, i32 0, i32 10
  %110 = getelementptr inbounds [256 x i8], ptr %109, i64 0, i64 36
  store i8 97, ptr %110, align 4, !tbaa !32
  %111 = getelementptr inbounds nuw %"class.smt2::scanner", ptr %16, i32 0, i32 10
  %112 = getelementptr inbounds [256 x i8], ptr %111, i64 0, i64 37
  store i8 97, ptr %112, align 1, !tbaa !32
  %113 = getelementptr inbounds nuw %"class.smt2::scanner", ptr %16, i32 0, i32 10
  %114 = getelementptr inbounds [256 x i8], ptr %113, i64 0, i64 94
  store i8 97, ptr %114, align 2, !tbaa !32
  %115 = getelementptr inbounds nuw %"class.smt2::scanner", ptr %16, i32 0, i32 10
  %116 = getelementptr inbounds [256 x i8], ptr %115, i64 0, i64 38
  store i8 97, ptr %116, align 2, !tbaa !32
  %117 = getelementptr inbounds nuw %"class.smt2::scanner", ptr %16, i32 0, i32 10
  %118 = getelementptr inbounds [256 x i8], ptr %117, i64 0, i64 42
  store i8 97, ptr %118, align 2, !tbaa !32
  %119 = getelementptr inbounds nuw %"class.smt2::scanner", ptr %16, i32 0, i32 10
  %120 = getelementptr inbounds [256 x i8], ptr %119, i64 0, i64 95
  store i8 97, ptr %120, align 1, !tbaa !32
  %121 = getelementptr inbounds nuw %"class.smt2::scanner", ptr %16, i32 0, i32 10
  %122 = getelementptr inbounds [256 x i8], ptr %121, i64 0, i64 45
  store i8 45, ptr %122, align 1, !tbaa !32
  %123 = getelementptr inbounds nuw %"class.smt2::scanner", ptr %16, i32 0, i32 10
  %124 = getelementptr inbounds [256 x i8], ptr %123, i64 0, i64 43
  store i8 97, ptr %124, align 1, !tbaa !32
  %125 = getelementptr inbounds nuw %"class.smt2::scanner", ptr %16, i32 0, i32 10
  %126 = getelementptr inbounds [256 x i8], ptr %125, i64 0, i64 61
  store i8 97, ptr %126, align 1, !tbaa !32
  %127 = getelementptr inbounds nuw %"class.smt2::scanner", ptr %16, i32 0, i32 10
  %128 = getelementptr inbounds [256 x i8], ptr %127, i64 0, i64 60
  store i8 97, ptr %128, align 4, !tbaa !32
  %129 = getelementptr inbounds nuw %"class.smt2::scanner", ptr %16, i32 0, i32 10
  %130 = getelementptr inbounds [256 x i8], ptr %129, i64 0, i64 62
  store i8 97, ptr %130, align 2, !tbaa !32
  %131 = getelementptr inbounds nuw %"class.smt2::scanner", ptr %16, i32 0, i32 10
  %132 = getelementptr inbounds [256 x i8], ptr %131, i64 0, i64 46
  store i8 97, ptr %132, align 2, !tbaa !32
  %133 = getelementptr inbounds nuw %"class.smt2::scanner", ptr %16, i32 0, i32 10
  %134 = getelementptr inbounds [256 x i8], ptr %133, i64 0, i64 63
  store i8 97, ptr %134, align 1, !tbaa !32
  %135 = getelementptr inbounds nuw %"class.smt2::scanner", ptr %16, i32 0, i32 10
  %136 = getelementptr inbounds [256 x i8], ptr %135, i64 0, i64 47
  store i8 97, ptr %136, align 1, !tbaa !32
  %137 = getelementptr inbounds nuw %"class.smt2::scanner", ptr %16, i32 0, i32 10
  %138 = getelementptr inbounds [256 x i8], ptr %137, i64 0, i64 44
  store i8 97, ptr %138, align 4, !tbaa !32
  invoke void @_ZN4smt27scanner4nextEv(ptr noundef nonnull align 8 dereferenceable(1408) %16)
          to label %139 unwind label %140

139:                                              ; preds = %102
  ret void

140:                                              ; preds = %102
  %141 = landingpad { ptr, i32 }
          cleanup
  %142 = extractvalue { ptr, i32 } %141, 0
  store ptr %142, ptr %13, align 8
  %143 = extractvalue { ptr, i32 } %141, 1
  store i32 %143, ptr %14, align 4
  call void @_ZN6vectorIcLb0EjED2Ev(ptr noundef nonnull align 8 dereferenceable(8) %38) #3
  call void @_ZN6vectorIcLb0EjED2Ev(ptr noundef nonnull align 8 dereferenceable(8) %37) #3
  call void @_ZN6vectorIcLb0EjED2Ev(ptr noundef nonnull align 8 dereferenceable(8) %33) #3
  call void @_ZN8rationalD2Ev(ptr noundef nonnull align 8 dereferenceable(32) %29) #3
  br label %144

144:                                              ; preds = %140
  %145 = load ptr, ptr %13, align 8
  %146 = load i32, ptr %14, align 4
  %147 = insertvalue { ptr, i32 } poison, ptr %145, 0
  %148 = insertvalue { ptr, i32 } %147, i32 %146, 1
  resume { ptr, i32 } %148
}