; Function Attrs: mustprogress uwtable
define hidden void @_ZN4smt27scannerC2ER11cmd_contextRSib(ptr noundef nonnull align 8 dereferenceable(1408) initializes((0, 9), (12, 18), (20, 28), (32, 44), (48, 60), (64, 76), (1356, 1364), (1368, 1385), (1392, 1408)) %0, ptr noundef nonnull align 8 dereferenceable(896) %1, ptr noundef nonnull align 8 dereferenceable(16) %2, i1 noundef zeroext %3) unnamed_addr #3 align 2 personality ptr @__gxx_personality_v0 {
  %5 = zext i1 %3 to i8
  store ptr %1, ptr %0, align 8, !tbaa !70
  %6 = getelementptr inbounds nuw i8, ptr %0, i64 8
  store i8 %5, ptr %6, align 8, !tbaa !26
  %7 = getelementptr inbounds nuw i8, ptr %0, i64 12
  store i32 0, ptr %7, align 4, !tbaa !45
  %8 = getelementptr inbounds nuw i8, ptr %0, i64 16
  store i8 0, ptr %8, align 8, !tbaa !28
  %9 = getelementptr inbounds nuw i8, ptr %0, i64 17
  store i8 0, ptr %9, align 1, !tbaa !25
  %10 = getelementptr inbounds nuw i8, ptr %0, i64 20
  store i32 1, ptr %10, align 4, !tbaa !58
  %11 = getelementptr inbounds nuw i8, ptr %0, i64 24
  store i32 0, ptr %11, align 8, !tbaa !71
  %12 = getelementptr inbounds nuw i8, ptr %0, i64 32
  store ptr null, ptr %12, align 8, !tbaa !72
  %13 = getelementptr inbounds nuw i8, ptr %0, i64 40
  store i32 0, ptr %13, align 8, !tbaa !63
  %14 = getelementptr inbounds nuw i8, ptr %0, i64 44
  %15 = load i8, ptr %14, align 4
  %16 = and i8 %15, -4
  store i8 %16, ptr %14, align 4
  %17 = getelementptr inbounds nuw i8, ptr %0, i64 48
  store ptr null, ptr %17, align 8, !tbaa !62
  %18 = getelementptr inbounds nuw i8, ptr %0, i64 56
  store i32 1, ptr %18, align 8, !tbaa !63
  %19 = getelementptr inbounds nuw i8, ptr %0, i64 60
  %20 = load i8, ptr %19, align 4
  %21 = and i8 %20, -4
  store i8 %21, ptr %19, align 4
  %22 = getelementptr inbounds nuw i8, ptr %0, i64 64
  store ptr null, ptr %22, align 8, !tbaa !62
  %23 = getelementptr inbounds nuw i8, ptr %0, i64 72
  store i32 -1, ptr %23, align 8, !tbaa !67
  %24 = getelementptr inbounds nuw i8, ptr %0, i64 1356
  store i32 0, ptr %24, align 4, !tbaa !41
  %25 = getelementptr inbounds nuw i8, ptr %0, i64 1360
  store i32 0, ptr %25, align 8, !tbaa !42
  %26 = getelementptr inbounds nuw i8, ptr %0, i64 1368
  store ptr null, ptr %26, align 8, !tbaa !22
  %27 = getelementptr inbounds nuw i8, ptr %0, i64 1376
  store ptr %2, ptr %27, align 8, !tbaa !27
  %28 = getelementptr inbounds nuw i8, ptr %0, i64 1384
  store i8 0, ptr %28, align 8, !tbaa !3
  %29 = getelementptr inbounds nuw i8, ptr %0, i64 1392
  %30 = getelementptr inbounds nuw i8, ptr %0, i64 76
  tail call void @llvm.memset.p0.i64(ptr noundef nonnull align 8 dereferenceable(16) %29, i8 0, i64 16, i1 false)
  br label %48

.preheader24.preheader:                           ; preds = %48
  %31 = getelementptr inbounds nuw i8, ptr %0, i64 85
  store i8 32, ptr %31, align 1, !tbaa !24
  %32 = getelementptr inbounds nuw i8, ptr %0, i64 89
  store i8 32, ptr %32, align 1, !tbaa !24
  %scevgep = getelementptr inbounds nuw i8, ptr %0, i64 174
  tail call void @llvm.memset.p0.i64(ptr noundef nonnull align 2 dereferenceable(25) %scevgep, i8 97, i64 25, i1 false), !tbaa !24
  %scevgep33 = getelementptr inbounds nuw i8, ptr %0, i64 141
  tail call void @llvm.memset.p0.i64(ptr noundef nonnull align 1 dereferenceable(26) %scevgep33, i8 97, i64 26, i1 false), !tbaa !24
  %scevgep37 = getelementptr inbounds nuw i8, ptr %0, i64 125
  tail call void @llvm.memset.p0.i64(ptr noundef nonnull align 1 dereferenceable(9) %scevgep37, i8 48, i64 9, i1 false), !tbaa !24
  %33 = getelementptr inbounds nuw i8, ptr %0, i64 202
  store i8 97, ptr %33, align 2, !tbaa !24
  %34 = getelementptr inbounds nuw i8, ptr %0, i64 109
  store i8 97, ptr %34, align 1, !tbaa !24
  %35 = getelementptr inbounds nuw i8, ptr %0, i64 140
  store i8 97, ptr %35, align 4, !tbaa !24
  %36 = getelementptr inbounds nuw i8, ptr %0, i64 112
  store i8 97, ptr %36, align 8, !tbaa !24
  %37 = getelementptr inbounds nuw i8, ptr %0, i64 113
  store i8 97, ptr %37, align 1, !tbaa !24
  %38 = getelementptr inbounds nuw i8, ptr %0, i64 170
  store i8 97, ptr %38, align 2, !tbaa !24
  %39 = getelementptr inbounds nuw i8, ptr %0, i64 114
  store i8 97, ptr %39, align 2, !tbaa !24
  %40 = getelementptr inbounds nuw i8, ptr %0, i64 118
  store i8 97, ptr %40, align 2, !tbaa !24
  %41 = getelementptr inbounds nuw i8, ptr %0, i64 171
  store i8 97, ptr %41, align 1, !tbaa !24
  %42 = getelementptr inbounds nuw i8, ptr %0, i64 121
  store i8 45, ptr %42, align 1, !tbaa !24
  %43 = getelementptr inbounds nuw i8, ptr %0, i64 119
  store i8 97, ptr %43, align 1, !tbaa !24
  %44 = getelementptr inbounds nuw i8, ptr %0, i64 136
  %45 = getelementptr inbounds nuw i8, ptr %0, i64 122
  store i8 97, ptr %45, align 2, !tbaa !24
  %46 = getelementptr inbounds nuw i8, ptr %0, i64 123
  store i8 97, ptr %46, align 1, !tbaa !24
  %47 = getelementptr inbounds nuw i8, ptr %0, i64 120
  store i8 97, ptr %47, align 8, !tbaa !24
  store i32 1633771873, ptr %44, align 8
  invoke void @_ZN4smt27scanner4nextEv(ptr noundef nonnull align 8 dereferenceable(1408) %0)
          to label %51 unwind label %52

48:                                               ; preds = %4, %48
  %indvars.iv = phi i64 [ 0, %4 ], [ %indvars.iv.next, %48 ]
  %49 = trunc i64 %indvars.iv to i8
  %50 = getelementptr inbounds nuw [256 x i8], ptr %30, i64 0, i64 %indvars.iv
  store i8 %49, ptr %50, align 1, !tbaa !24
  %indvars.iv.next = add nuw nsw i64 %indvars.iv, 1
  %exitcond.not = icmp eq i64 %indvars.iv.next, 256
  br i1 %exitcond.not, label %.preheader24.preheader, label %48, !llvm.loop !73

51:                                               ; preds = %.preheader24.preheader
  ret void

52:                                               ; preds = %.preheader24.preheader
  %53 = landingpad { ptr, i32 }
          cleanup
  %54 = getelementptr inbounds nuw i8, ptr %0, i64 1400
  tail call void @_ZN6vectorIcLb0EjED2Ev(ptr noundef nonnull align 8 dereferenceable(8) %54) #21
  tail call void @_ZN6vectorIcLb0EjED2Ev(ptr noundef nonnull align 8 dereferenceable(8) %29) #21
  tail call void @_ZN6vectorIcLb0EjED2Ev(ptr noundef nonnull align 8 dereferenceable(8) %26) #21
  tail call void @_ZN8rationalD2Ev(ptr noundef nonnull align 8 dereferenceable(32) %13) #21
  resume { ptr, i32 } %53
}